; ModuleID = '7/89.c'
source_filename = "7/89.c"
target datalayout = "e-m:e-p270:32:32-p271:32:32-p272:64:64-i64:64-f80:128-n8:16:32:64-S128"
target triple = "x86_64-pc-linux-gnu"

@.str = private unnamed_addr constant [3 x i8] c"%c\00", align 1
@.str.1 = private unnamed_addr constant [3 x i8] c"%s\00", align 1

; Function Attrs: noinline nounwind uwtable
define dso_local i32 @main() #0 {
  %1 = alloca i32, align 4
  %2 = alloca [256 x i8], align 16
  %3 = alloca [256 x i8], align 16
  %4 = alloca [256 x i8], align 16
  %5 = alloca i32, align 4
  %6 = alloca i32, align 4
  %7 = alloca i32, align 4
  %8 = alloca i32, align 4
  %9 = alloca i32, align 4
  %10 = alloca i32, align 4
  %11 = alloca i32, align 4
  %12 = alloca i32, align 4
  %13 = alloca i32, align 4
  %14 = alloca i32, align 4
  store i32 0, i32* %1, align 4
  store i32 0, i32* %14, align 4
  %15 = getelementptr inbounds [256 x i8], [256 x i8]* %2, i64 0, i64 0
  %16 = call i32 (i8*, ...) bitcast (i32 (...)* @gets to i32 (i8*, ...)*)(i8* %15)
  %17 = getelementptr inbounds [256 x i8], [256 x i8]* %3, i64 0, i64 0
  %18 = call i32 (i8*, ...) bitcast (i32 (...)* @gets to i32 (i8*, ...)*)(i8* %17)
  %19 = getelementptr inbounds [256 x i8], [256 x i8]* %4, i64 0, i64 0
  %20 = call i32 (i8*, ...) bitcast (i32 (...)* @gets to i32 (i8*, ...)*)(i8* %19)
  %21 = getelementptr inbounds [256 x i8], [256 x i8]* %2, i64 0, i64 0
  %22 = call i64 @strlen(i8* %21) #3
  %23 = trunc i64 %22 to i32
  store i32 %23, i32* %13, align 4
  %24 = getelementptr inbounds [256 x i8], [256 x i8]* %3, i64 0, i64 0
  %25 = call i64 @strlen(i8* %24) #3
  %26 = trunc i64 %25 to i32
  store i32 %26, i32* %11, align 4
  %27 = getelementptr inbounds [256 x i8], [256 x i8]* %4, i64 0, i64 0
  %28 = call i64 @strlen(i8* %27) #3
  %29 = trunc i64 %28 to i32
  store i32 %29, i32* %6, align 4
  store i32 0, i32* %5, align 4
  br label %30

30:                                               ; preds = %153, %0
  %31 = load i32, i32* %5, align 4
  %32 = sext i32 %31 to i64
  %33 = getelementptr inbounds [256 x i8], [256 x i8]* %2, i64 0, i64 %32
  %34 = load i8, i8* %33, align 1
  %35 = sext i8 %34 to i32
  %36 = icmp ne i32 %35, 0
  br i1 %36, label %37, label %156

37:                                               ; preds = %30
  %38 = load i32, i32* %5, align 4
  %39 = sext i32 %38 to i64
  %40 = getelementptr inbounds [256 x i8], [256 x i8]* %2, i64 0, i64 %39
  %41 = load i8, i8* %40, align 1
  %42 = sext i8 %41 to i32
  %43 = getelementptr inbounds [256 x i8], [256 x i8]* %3, i64 0, i64 0
  %44 = load i8, i8* %43, align 16
  %45 = sext i8 %44 to i32
  %46 = icmp eq i32 %42, %45
  br i1 %46, label %47, label %148

47:                                               ; preds = %37
  store i32 0, i32* %7, align 4
  store i32 0, i32* %9, align 4
  br label %48

48:                                               ; preds = %68, %47
  %49 = load i32, i32* %9, align 4
  %50 = load i32, i32* %11, align 4
  %51 = icmp slt i32 %49, %50
  br i1 %51, label %52, label %71

52:                                               ; preds = %48
  %53 = load i32, i32* %9, align 4
  %54 = load i32, i32* %5, align 4
  %55 = add nsw i32 %53, %54
  %56 = sext i32 %55 to i64
  %57 = getelementptr inbounds [256 x i8], [256 x i8]* %2, i64 0, i64 %56
  %58 = load i8, i8* %57, align 1
  %59 = sext i8 %58 to i32
  %60 = load i32, i32* %9, align 4
  %61 = sext i32 %60 to i64
  %62 = getelementptr inbounds [256 x i8], [256 x i8]* %3, i64 0, i64 %61
  %63 = load i8, i8* %62, align 1
  %64 = sext i8 %63 to i32
  %65 = icmp ne i32 %59, %64
  br i1 %65, label %66, label %67

66:                                               ; preds = %52
  store i32 1, i32* %7, align 4
  br label %67

67:                                               ; preds = %66, %52
  br label %68

68:                                               ; preds = %67
  %69 = load i32, i32* %9, align 4
  %70 = add nsw i32 %69, 1
  store i32 %70, i32* %9, align 4
  br label %48

71:                                               ; preds = %48
  %72 = load i32, i32* %7, align 4
  %73 = icmp eq i32 %72, 0
  br i1 %73, label %74, label %143

74:                                               ; preds = %71
  %75 = load i32, i32* %5, align 4
  store i32 %75, i32* %8, align 4
  %76 = load i32, i32* %8, align 4
  %77 = icmp ne i32 %76, 0
  br i1 %77, label %78, label %94

78:                                               ; preds = %74
  store i32 0, i32* %10, align 4
  br label %79

79:                                               ; preds = %90, %78
  %80 = load i32, i32* %10, align 4
  %81 = load i32, i32* %8, align 4
  %82 = icmp slt i32 %80, %81
  br i1 %82, label %83, label %93

83:                                               ; preds = %79
  %84 = load i32, i32* %10, align 4
  %85 = sext i32 %84 to i64
  %86 = getelementptr inbounds [256 x i8], [256 x i8]* %2, i64 0, i64 %85
  %87 = load i8, i8* %86, align 1
  %88 = sext i8 %87 to i32
  %89 = call i32 (i8*, ...) @printf(i8* getelementptr inbounds ([3 x i8], [3 x i8]* @.str, i64 0, i64 0), i32 %88)
  store i32 1, i32* %14, align 4
  br label %90

90:                                               ; preds = %83
  %91 = load i32, i32* %10, align 4
  %92 = add nsw i32 %91, 1
  store i32 %92, i32* %10, align 4
  br label %79

93:                                               ; preds = %79
  br label %94

94:                                               ; preds = %93, %74
  store i32 0, i32* %12, align 4
  br label %95

95:                                               ; preds = %106, %94
  %96 = load i32, i32* %12, align 4
  %97 = load i32, i32* %6, align 4
  %98 = icmp slt i32 %96, %97
  br i1 %98, label %99, label %109

99:                                               ; preds = %95
  %100 = load i32, i32* %12, align 4
  %101 = sext i32 %100 to i64
  %102 = getelementptr inbounds [256 x i8], [256 x i8]* %4, i64 0, i64 %101
  %103 = load i8, i8* %102, align 1
  %104 = sext i8 %103 to i32
  %105 = call i32 (i8*, ...) @printf(i8* getelementptr inbounds ([3 x i8], [3 x i8]* @.str, i64 0, i64 0), i32 %104)
  br label %106

106:                                              ; preds = %99
  %107 = load i32, i32* %12, align 4
  %108 = add nsw i32 %107, 1
  store i32 %108, i32* %12, align 4
  br label %95

109:                                              ; preds = %95
  %110 = load i32, i32* %11, align 4
  %111 = load i32, i32* %8, align 4
  %112 = add nsw i32 %110, %111
  %113 = sext i32 %112 to i64
  %114 = getelementptr inbounds [256 x i8], [256 x i8]* %2, i64 0, i64 %113
  %115 = load i8, i8* %114, align 1
  %116 = sext i8 %115 to i32
  %117 = icmp ne i32 %116, 0
  br i1 %117, label %118, label %138

118:                                              ; preds = %109
  %119 = load i32, i32* %11, align 4
  %120 = load i32, i32* %8, align 4
  %121 = add nsw i32 %119, %120
  store i32 %121, i32* %10, align 4
  br label %122

122:                                              ; preds = %133, %118
  %123 = load i32, i32* %10, align 4
  %124 = load i32, i32* %13, align 4
  %125 = icmp slt i32 %123, %124
  br i1 %125, label %126, label %136

126:                                              ; preds = %122
  %127 = load i32, i32* %10, align 4
  %128 = sext i32 %127 to i64
  %129 = getelementptr inbounds [256 x i8], [256 x i8]* %2, i64 0, i64 %128
  %130 = load i8, i8* %129, align 1
  %131 = sext i8 %130 to i32
  %132 = call i32 (i8*, ...) @printf(i8* getelementptr inbounds ([3 x i8], [3 x i8]* @.str, i64 0, i64 0), i32 %131)
  br label %133

133:                                              ; preds = %126
  %134 = load i32, i32* %10, align 4
  %135 = add nsw i32 %134, 1
  store i32 %135, i32* %10, align 4
  br label %122

136:                                              ; preds = %122
  %137 = call i32 (i8*, ...) @printf(i8* null)
  store i32 1, i32* %14, align 4
  br label %138

138:                                              ; preds = %136, %109
  %139 = load i32, i32* %14, align 4
  %140 = icmp eq i32 %139, 1
  br i1 %140, label %141, label %142

141:                                              ; preds = %138
  br label %156

142:                                              ; preds = %138
  br label %143

143:                                              ; preds = %142, %71
  %144 = load i32, i32* %14, align 4
  %145 = icmp eq i32 %144, 1
  br i1 %145, label %146, label %147

146:                                              ; preds = %143
  br label %156

147:                                              ; preds = %143
  br label %148

148:                                              ; preds = %147, %37
  %149 = load i32, i32* %14, align 4
  %150 = icmp eq i32 %149, 1
  br i1 %150, label %151, label %152

151:                                              ; preds = %148
  br label %156

152:                                              ; preds = %148
  br label %153

153:                                              ; preds = %152
  %154 = load i32, i32* %5, align 4
  %155 = add nsw i32 %154, 1
  store i32 %155, i32* %5, align 4
  br label %30

156:                                              ; preds = %151, %146, %141, %30
  %157 = load i32, i32* %14, align 4
  %158 = icmp eq i32 %157, 0
  br i1 %158, label %159, label %162

159:                                              ; preds = %156
  %160 = getelementptr inbounds [256 x i8], [256 x i8]* %2, i64 0, i64 0
  %161 = call i32 (i8*, ...) @printf(i8* getelementptr inbounds ([3 x i8], [3 x i8]* @.str.1, i64 0, i64 0), i8* %160)
  br label %162

162:                                              ; preds = %159, %156
  ret i32 0
}

declare dso_local i32 @gets(...) #1

; Function Attrs: nounwind readonly
declare dso_local i64 @strlen(i8*) #2

declare dso_local i32 @printf(i8*, ...) #1


!llvm.module.flags = !{!0}
!llvm.ident = !{!1}

!0 = !{i32 1, !"wchar_size", i32 4}
!1 = !{!"clang version 10.0.0-4ubuntu1 "}
